target datalayout = "e-m:e-p270:32:32-p271:32:32-p272:64:64-i64:64-i128:128-f80:128-n8:16:32:64-S128"
target triple = "x86_64-pc-linux-gnu"

%struct.Abc_Ntk_t_ = type { i32, i32, ptr, ptr, ptr, ptr, ptr, ptr, ptr, ptr, ptr, ptr, ptr, [11 x i32], i32, i32, i32, i32, ptr, i32, ptr, ptr, i32, i32, i32, double, i32, %struct.Vec_Int_t_, ptr, ptr, ptr, ptr, ptr, float, i32, ptr, ptr, ptr, ptr, ptr, ptr, ptr, ptr, ptr, ptr, ptr, ptr, ptr, ptr, ptr, ptr, ptr, ptr, ptr, ptr, ptr, ptr }
%struct.Vec_Int_t_ = type { i32, i32, ptr }
%struct.Vec_Ptr_t_ = type { i32, i32, ptr }
%struct.Abc_Obj_t_ = type { ptr, ptr, i32, i32, %struct.Vec_Int_t_, %struct.Vec_Int_t_, %union.anon, %union.anon.0 }
%union.anon = type { ptr }
%union.anon.0 = type { ptr }

@.str.16 = private unnamed_addr constant [5 x i8] c" m%d\00", align 1
@.str.17 = private unnamed_addr constant [4 x i8] c" \\\0A\00", align 1
@.str.18 = private unnamed_addr constant [7 x i8] c" %c=%s\00", align 1

; Function Attrs: inlinehint nounwind uwtable
define internal ptr @Abc_ObjFanin(ptr noundef %0, i32 noundef %1) #4 {
  %3 = alloca ptr, align 8
  %4 = alloca i32, align 4
  store ptr %0, ptr %3, align 8, !tbaa !41
  store i32 %1, ptr %4, align 4, !tbaa !10
  %5 = load ptr, ptr %3, align 8, !tbaa !41
  %6 = getelementptr inbounds nuw %struct.Abc_Obj_t_, ptr %5, i32 0, i32 0
  %7 = load ptr, ptr %6, align 8, !tbaa !57
  %8 = getelementptr inbounds nuw %struct.Abc_Ntk_t_, ptr %7, i32 0, i32 5
  %9 = load ptr, ptr %8, align 8, !tbaa !49
  %10 = getelementptr inbounds nuw %struct.Vec_Ptr_t_, ptr %9, i32 0, i32 2
  %11 = load ptr, ptr %10, align 8, !tbaa !38
  %12 = load ptr, ptr %3, align 8, !tbaa !41
  %13 = getelementptr inbounds nuw %struct.Abc_Obj_t_, ptr %12, i32 0, i32 4
  %14 = getelementptr inbounds nuw %struct.Vec_Int_t_, ptr %13, i32 0, i32 2
  %15 = load ptr, ptr %14, align 8, !tbaa !59
  %16 = load i32, ptr %4, align 4, !tbaa !10
  %17 = sext i32 %16 to i64
  %18 = getelementptr inbounds i32, ptr %15, i64 %17
  %19 = load i32, ptr %18, align 4, !tbaa !10
  %20 = sext i32 %19 to i64
  %21 = getelementptr inbounds ptr, ptr %11, i64 %20
  %22 = load ptr, ptr %21, align 8, !tbaa !39
  ret ptr %22
}

; Function Attrs: inlinehint nounwind uwtable
define internal i32 @Abc_ObjFaninNum(ptr noundef %0) #4 {
  %2 = alloca ptr, align 8
  store ptr %0, ptr %2, align 8, !tbaa !41
  %3 = load ptr, ptr %2, align 8, !tbaa !41
  %4 = getelementptr inbounds nuw %struct.Abc_Obj_t_, ptr %3, i32 0, i32 4
  %5 = getelementptr inbounds nuw %struct.Vec_Int_t_, ptr %4, i32 0, i32 1
  %6 = load i32, ptr %5, align 4, !tbaa !71
  ret i32 %6
}

; Function Attrs: inlinehint nounwind uwtable
define internal i32 @Abc_ObjId(ptr noundef %0) #4 {
  %2 = alloca ptr, align 8
  store ptr %0, ptr %2, align 8, !tbaa !41
  %3 = load ptr, ptr %2, align 8, !tbaa !41
  %4 = getelementptr inbounds nuw %struct.Abc_Obj_t_, ptr %3, i32 0, i32 2
  %5 = load i32, ptr %4, align 8, !tbaa !70
  ret i32 %5
}

; Function Attrs: inlinehint nounwind uwtable
define internal ptr @Abc_ObjFanout0(ptr noundef %0) #4 {
  %2 = alloca ptr, align 8
  store ptr %0, ptr %2, align 8, !tbaa !41
  %3 = load ptr, ptr %2, align 8, !tbaa !41
  %4 = getelementptr inbounds nuw %struct.Abc_Obj_t_, ptr %3, i32 0, i32 0
  %5 = load ptr, ptr %4, align 8, !tbaa !57
  %6 = getelementptr inbounds nuw %struct.Abc_Ntk_t_, ptr %5, i32 0, i32 5
  %7 = load ptr, ptr %6, align 8, !tbaa !49
  %8 = getelementptr inbounds nuw %struct.Vec_Ptr_t_, ptr %7, i32 0, i32 2
  %9 = load ptr, ptr %8, align 8, !tbaa !38
  %10 = load ptr, ptr %2, align 8, !tbaa !41
  %11 = getelementptr inbounds nuw %struct.Abc_Obj_t_, ptr %10, i32 0, i32 5
  %12 = getelementptr inbounds nuw %struct.Vec_Int_t_, ptr %11, i32 0, i32 2
  %13 = load ptr, ptr %12, align 8, !tbaa !69
  %14 = getelementptr inbounds i32, ptr %13, i64 0
  %15 = load i32, ptr %14, align 4, !tbaa !10
  %16 = sext i32 %15 to i64
  %17 = getelementptr inbounds ptr, ptr %9, i64 %16
  %18 = load ptr, ptr %17, align 8, !tbaa !39
  ret ptr %18
}

; Function Attrs: nounwind uwtable
define void @Io_NtkEdgelistWriteSubcktFanins(ptr noundef %0, ptr noundef %1) #0 {
  %3 = alloca ptr, align 8
  %4 = alloca ptr, align 8
  %5 = alloca ptr, align 8
  %6 = alloca i32, align 4
  %7 = alloca i32, align 4
  %8 = alloca i32, align 4
  %9 = alloca ptr, align 8
  %10 = alloca i32, align 4
  store ptr %0, ptr %3, align 8, !tbaa !12
  store ptr %1, ptr %4, align 8, !tbaa !41
  call void @llvm.lifetime.start.p0(i64 8, ptr %5) #8
  call void @llvm.lifetime.start.p0(i64 4, ptr %6) #8
  call void @llvm.lifetime.start.p0(i64 4, ptr %7) #8
  call void @llvm.lifetime.start.p0(i64 4, ptr %8) #8
  call void @llvm.lifetime.start.p0(i64 8, ptr %9) #8
  call void @llvm.lifetime.start.p0(i64 4, ptr %10) #8
  store i32 6, ptr %6, align 4, !tbaa !10
  store i32 0, ptr %8, align 4, !tbaa !10
  %11 = load ptr, ptr %4, align 8, !tbaa !41
  %12 = call ptr @Abc_ObjFanout0(ptr noundef %11)
  %13 = call ptr @Abc_ObjName(ptr noundef %12)
  store ptr %13, ptr %9, align 8, !tbaa !8
  %14 = load ptr, ptr %9, align 8, !tbaa !8
  %15 = call i64 @strlen(ptr noundef %14) #9
  %16 = add i64 %15, 1
  %17 = trunc i64 %16 to i32
  store i32 %17, ptr %7, align 4, !tbaa !10
  %18 = load ptr, ptr %3, align 8, !tbaa !12
  %19 = load ptr, ptr %4, align 8, !tbaa !41
  %20 = call i32 @Abc_ObjId(ptr noundef %19)
  %21 = call i32 (ptr, ptr, ...) @fprintf(ptr noundef %18, ptr noundef @.str.16, i32 noundef %20) #8
  store i32 0, ptr %10, align 4, !tbaa !10
  br label %22

22:                                               ; preds = %62, %2
  %23 = load i32, ptr %10, align 4, !tbaa !10
  %24 = load ptr, ptr %4, align 8, !tbaa !41
  %25 = call i32 @Abc_ObjFaninNum(ptr noundef %24)
  %26 = icmp slt i32 %23, %25
  br i1 %26, label %27, label %31

27:                                               ; preds = %22
  %28 = load ptr, ptr %4, align 8, !tbaa !41
  %29 = load i32, ptr %10, align 4, !tbaa !10
  %30 = call ptr @Abc_ObjFanin(ptr noundef %28, i32 noundef %29)
  store ptr %30, ptr %5, align 8, !tbaa !41
  br label %31

31:                                               ; preds = %27, %22
  %32 = phi i1 [ false, %22 ], [ true, %27 ]
  br i1 %32, label %33, label %65

33:                                               ; preds = %31
  %34 = load ptr, ptr %5, align 8, !tbaa !41
  %35 = call ptr @Abc_ObjName(ptr noundef %34)
  store ptr %35, ptr %9, align 8, !tbaa !8
  %36 = load ptr, ptr %9, align 8, !tbaa !8
  %37 = call i64 @strlen(ptr noundef %36) #9
  %38 = add i64 %37, 3
  %39 = trunc i64 %38 to i32
  store i32 %39, ptr %7, align 4, !tbaa !10
  %40 = load i32, ptr %8, align 4, !tbaa !10
  %41 = icmp ne i32 %40, 0
  br i1 %41, label %42, label %51

42:                                               ; preds = %33
  %43 = load i32, ptr %6, align 4, !tbaa !10
  %44 = load i32, ptr %7, align 4, !tbaa !10
  %45 = add nsw i32 %43, %44
  %46 = add nsw i32 %45, 3
  %47 = icmp sgt i32 %46, 78
  br i1 %47, label %48, label %51

48:                                               ; preds = %42
  %49 = load ptr, ptr %3, align 8, !tbaa !12
  %50 = call i32 (ptr, ptr, ...) @fprintf(ptr noundef %49, ptr noundef @.str.17) #8
  store i32 0, ptr %6, align 4, !tbaa !10
  store i32 0, ptr %8, align 4, !tbaa !10
  br label %51

51:                                               ; preds = %48, %42, %33
  %52 = load ptr, ptr %3, align 8, !tbaa !12
  %53 = load i32, ptr %10, align 4, !tbaa !10
  %54 = add nsw i32 97, %53
  %55 = load ptr, ptr %9, align 8, !tbaa !8
  %56 = call i32 (ptr, ptr, ...) @fprintf(ptr noundef %52, ptr noundef @.str.18, i32 noundef %54, ptr noundef %55) #8
  %57 = load i32, ptr %7, align 4, !tbaa !10
  %58 = load i32, ptr %6, align 4, !tbaa !10
  %59 = add nsw i32 %58, %57
  store i32 %59, ptr %6, align 4, !tbaa !10
  %60 = load i32, ptr %8, align 4, !tbaa !10
  %61 = add nsw i32 %60, 1
  store i32 %61, ptr %8, align 4, !tbaa !10
  br label %62

62:                                               ; preds = %51
  %63 = load i32, ptr %10, align 4, !tbaa !10
  %64 = add nsw i32 %63, 1
  store i32 %64, ptr %10, align 4, !tbaa !10
  br label %22, !llvm.loop !68

65:                                               ; preds = %31
  %66 = load ptr, ptr %4, align 8, !tbaa !41
  %67 = call ptr @Abc_ObjFanout0(ptr noundef %66)
  %68 = call ptr @Abc_ObjName(ptr noundef %67)
  store ptr %68, ptr %9, align 8, !tbaa !8
  %69 = load ptr, ptr %9, align 8, !tbaa !8
  %70 = call i64 @strlen(ptr noundef %69) #9
  %71 = add i64 %70, 3
  %72 = trunc i64 %71 to i32
  store i32 %72, ptr %7, align 4, !tbaa !10
  %73 = load i32, ptr %8, align 4, !tbaa !10
  %74 = icmp ne i32 %73, 0
  br i1 %74, label %75, label %83

75:                                               ; preds = %65
  %76 = load i32, ptr %6, align 4, !tbaa !10
  %77 = load i32, ptr %7, align 4, !tbaa !10
  %78 = add nsw i32 %76, %77
  %79 = icmp sgt i32 %78, 75
  br i1 %79, label %80, label %83

80:                                               ; preds = %75
  %81 = load ptr, ptr %3, align 8, !tbaa !12
  %82 = call i32 (ptr, ptr, ...) @fprintf(ptr noundef %81, ptr noundef @.str.17) #8
  store i32 0, ptr %6, align 4, !tbaa !10
  store i32 0, ptr %8, align 4, !tbaa !10
  br label %83

83:                                               ; preds = %80, %75, %65
  %84 = load ptr, ptr %3, align 8, !tbaa !12
  %85 = load ptr, ptr %9, align 8, !tbaa !8
  %86 = call i32 (ptr, ptr, ...) @fprintf(ptr noundef %84, ptr noundef @.str.18, i32 noundef 111, ptr noundef %85) #8
  call void @llvm.lifetime.end.p0(i64 4, ptr %10) #8
  call void @llvm.lifetime.end.p0(i64 8, ptr %9) #8
  call void @llvm.lifetime.end.p0(i64 4, ptr %8) #8
  call void @llvm.lifetime.end.p0(i64 4, ptr %7) #8
  call void @llvm.lifetime.end.p0(i64 4, ptr %6) #8
  call void @llvm.lifetime.end.p0(i64 8, ptr %5) #8
  ret void
}